target datalayout = "e-m:e-p270:32:32-p271:32:32-p272:64:64-i64:64-i128:128-f80:128-n8:16:32:64-S128"
target triple = "x86_64-pc-linux-gnu"

%struct.gpr_timespec = type { i64, i32, i32 }
%"class.grpc_core::TracedBufferList::TracedBuffer" = type { %struct.gpr_timespec, ptr, i32, ptr, %"struct.grpc_core::Timestamps" }
%"struct.grpc_core::Timestamps" = type { %"struct.grpc_core::BufferTimestamp", %"struct.grpc_core::BufferTimestamp", %"struct.grpc_core::BufferTimestamp", %"struct.grpc_core::BufferTimestamp", i32, %"struct.grpc_core::tcp_info" }
%"struct.grpc_core::BufferTimestamp" = type { %struct.gpr_timespec, %"struct.grpc_core::ConnectionMetrics" }
%"struct.grpc_core::ConnectionMetrics" = type { %"class.std::optional", %"class.std::optional.0", [2 x i8], %"class.std::optional.6", %"class.std::optional.6", %"class.std::optional.6", %"class.std::optional.6", %"class.std::optional.6", [4 x i8], %"class.std::optional", %"class.std::optional", %"class.std::optional", %"class.std::optional", %"class.std::optional.6", %"class.std::optional.6", %"class.std::optional.6", %"class.std::optional.6", %"class.std::optional.6", %"class.std::optional.14", [6 x i8], %"class.std::optional", %"class.std::optional", %"class.std::optional" }
%"class.std::optional.0" = type { %"struct.std::_Optional_base.1" }
%"struct.std::_Optional_base.1" = type { %"struct.std::_Optional_payload.3" }
%"struct.std::_Optional_payload.3" = type { %"struct.std::_Optional_payload_base.4" }
%"struct.std::_Optional_payload_base.4" = type { %"union.std::_Optional_payload_base<bool>::_Storage", i8 }
%"union.std::_Optional_payload_base<bool>::_Storage" = type { %"struct.std::_Optional_payload_base<bool>::_Empty_byte" }
%"struct.std::_Optional_payload_base<bool>::_Empty_byte" = type { i8 }
%"class.std::optional.6" = type { %"struct.std::_Optional_base.7" }
%"struct.std::_Optional_base.7" = type { %"struct.std::_Optional_payload.9" }
%"struct.std::_Optional_payload.9" = type { %"struct.std::_Optional_payload_base.base.11", [3 x i8] }
%"struct.std::_Optional_payload_base.base.11" = type <{ %"union.std::_Optional_payload_base<unsigned int>::_Storage", i8 }>
%"union.std::_Optional_payload_base<unsigned int>::_Storage" = type { i32 }
%"class.std::optional.14" = type { %"struct.std::_Optional_base.15" }
%"struct.std::_Optional_base.15" = type { %"struct.std::_Optional_payload.17" }
%"struct.std::_Optional_payload.17" = type { %"struct.std::_Optional_payload_base.18" }
%"struct.std::_Optional_payload_base.18" = type { %"union.std::_Optional_payload_base<unsigned char>::_Storage", i8 }
%"union.std::_Optional_payload_base<unsigned char>::_Storage" = type { %"struct.std::_Optional_payload_base<unsigned char>::_Empty_byte" }
%"struct.std::_Optional_payload_base<unsigned char>::_Empty_byte" = type { i8 }
%"class.std::optional" = type { %"struct.std::_Optional_base" }
%"struct.std::_Optional_base" = type { %"struct.std::_Optional_payload" }
%"struct.std::_Optional_payload" = type { %"struct.std::_Optional_payload_base.base", [7 x i8] }
%"struct.std::_Optional_payload_base.base" = type <{ %"union.std::_Optional_payload_base<unsigned long>::_Storage", i8 }>
%"union.std::_Optional_payload_base<unsigned long>::_Storage" = type { i64 }
%"struct.grpc_core::tcp_info" = type { i8, i8, i8, i8, i8, i8, i16, i32, i32, i32, i32, i32, i32, i32, i32, i32, i32, i32, i32, i32, i32, i32, i32, i32, i32, i32, i32, i32, i32, i32, i32, i64, i64, i64, i64, i32, i32, i32, i32, i32, i32, i64, i64, i64, i64, i32, i32, i64, i64, i32, i32, i32 }

; Function Attrs: mustprogress uwtable
define noundef zeroext i1 @_ZN9grpc_core16TracedBufferList12TracedBuffer8FinishedE12gpr_timespec(ptr noundef nonnull align 8 dereferenceable(1240) %0, i64 %1, i64 %2) #4 align 2 {
  %4 = alloca %struct.gpr_timespec, align 8
  %5 = alloca ptr, align 8
  %6 = alloca i32, align 4
  %7 = alloca %struct.gpr_timespec, align 8
  %8 = alloca %struct.gpr_timespec, align 8
  %9 = alloca %struct.gpr_timespec, align 8
  %10 = getelementptr inbounds nuw { i64, i64 }, ptr %4, i32 0, i32 0
  store i64 %1, ptr %10, align 8
  %11 = getelementptr inbounds nuw { i64, i64 }, ptr %4, i32 0, i32 1
  store i64 %2, ptr %11, align 8
  store ptr %0, ptr %5, align 8, !tbaa !3
  %12 = load ptr, ptr %5, align 8
  call void @llvm.lifetime.start.p0(i64 4, ptr %6) #3
  store i32 10000, ptr %6, align 4, !tbaa !8
  call void @llvm.memcpy.p0.p0.i64(ptr align 8 %8, ptr align 8 %4, i64 16, i1 false), !tbaa.struct !10
  %13 = getelementptr inbounds nuw %"class.grpc_core::TracedBufferList::TracedBuffer", ptr %12, i32 0, i32 0
  call void @llvm.memcpy.p0.p0.i64(ptr align 8 %9, ptr align 8 %13, i64 16, i1 false), !tbaa.struct !10
  %14 = getelementptr inbounds nuw { i64, i64 }, ptr %8, i32 0, i32 0
  %15 = load i64, ptr %14, align 8
  %16 = getelementptr inbounds nuw { i64, i64 }, ptr %8, i32 0, i32 1
  %17 = load i64, ptr %16, align 8
  %18 = getelementptr inbounds nuw { i64, i64 }, ptr %9, i32 0, i32 0
  %19 = load i64, ptr %18, align 8
  %20 = getelementptr inbounds nuw { i64, i64 }, ptr %9, i32 0, i32 1
  %21 = load i64, ptr %20, align 8
  %22 = call { i64, i64 } @gpr_time_sub(i64 %15, i64 %17, i64 %19, i64 %21)
  %23 = getelementptr inbounds nuw { i64, i64 }, ptr %7, i32 0, i32 0
  %24 = extractvalue { i64, i64 } %22, 0
  store i64 %24, ptr %23, align 8
  %25 = getelementptr inbounds nuw { i64, i64 }, ptr %7, i32 0, i32 1
  %26 = extractvalue { i64, i64 } %22, 1
  store i64 %26, ptr %25, align 8
  %27 = getelementptr inbounds nuw { i64, i64 }, ptr %7, i32 0, i32 0
  %28 = load i64, ptr %27, align 8
  %29 = getelementptr inbounds nuw { i64, i64 }, ptr %7, i32 0, i32 1
  %30 = load i64, ptr %29, align 8
  %31 = call i32 @gpr_time_to_millis(i64 %28, i64 %30)
  %32 = icmp sgt i32 %31, 10000
  call void @llvm.lifetime.end.p0(i64 4, ptr %6) #3
  ret i1 %32
}